	.file	"main.cc"
# GNU C++14 (GCC) version 6.2.1 20160830 (x86_64-pc-linux-gnu)
#	compiled by GNU C version 6.2.1 20160830, GMP version 6.1.1, MPFR version 3.1.4-p1, MPC version 1.0.3, isl version 0.15
# warning: MPFR header version 3.1.4-p1 differs from library version 3.1.5.
# GGC heuristics: --param ggc-min-expand=100 --param ggc-min-heapsize=131072
# options passed:  -D_GNU_SOURCE main.cc -mtune=generic -march=x86-64 -g
# -fPIE -fstack-check=specific -fstack-protector-strong -fverbose-asm
# options enabled:  -fPIC -fPIE -faggressive-loop-optimizations
# -fasynchronous-unwind-tables -fauto-inc-dec -fchkp-check-incomplete-type
# -fchkp-check-read -fchkp-check-write -fchkp-instrument-calls
# -fchkp-narrow-bounds -fchkp-optimize -fchkp-store-bounds
# -fchkp-use-static-bounds -fchkp-use-static-const-bounds
# -fchkp-use-wrappers -fcommon -fdelete-null-pointer-checks
# -fdwarf2-cfi-asm -fearly-inlining -feliminate-unused-debug-types
# -fexceptions -ffunction-cse -fgcse-lm -fgnu-runtime -fgnu-unique -fident
# -finline-atomics -fira-hoist-pressure -fira-share-save-slots
# -fira-share-spill-slots -fivopts -fkeep-static-consts
# -fleading-underscore -flifetime-dse -flto-odr-type-merging -fmath-errno
# -fmerge-debug-strings -fpeephole -fplt -fprefetch-loop-arrays
# -freg-struct-return -fsched-critical-path-heuristic
# -fsched-dep-count-heuristic -fsched-group-heuristic -fsched-interblock
# -fsched-last-insn-heuristic -fsched-rank-heuristic -fsched-spec
# -fsched-spec-insn-heuristic -fsched-stalled-insns-dep -fschedule-fusion
# -fsemantic-interposition -fshow-column -fsigned-zeros
# -fsplit-ivs-in-unroller -fssa-backprop -fstack-protector-strong
# -fstdarg-opt -fstrict-volatile-bitfields -fsync-libcalls -ftrapping-math
# -ftree-cselim -ftree-forwprop -ftree-loop-if-convert -ftree-loop-im
# -ftree-loop-ivcanon -ftree-loop-optimize -ftree-parallelize-loops=
# -ftree-phiprop -ftree-reassoc -ftree-scev-cprop -funit-at-a-time
# -funwind-tables -fverbose-asm -fzero-initialized-in-bss
# -m128bit-long-double -m64 -m80387 -malign-stringops
# -mavx256-split-unaligned-load -mavx256-split-unaligned-store
# -mfancy-math-387 -mfp-ret-in-387 -mfxsr -mglibc -mieee-fp
# -mlong-double-80 -mmmx -mno-sse4 -mpush-args -mred-zone -msse -msse2
# -mstv -mtls-direct-seg-refs -mvzeroupper

	.text
.Ltext0:
	.section	.rodata
	.type	_ZStL19piecewise_construct, @object
	.size	_ZStL19piecewise_construct, 1
_ZStL19piecewise_construct:
	.zero	1
	.local	_ZStL8__ioinit
	.comm	_ZStL8__ioinit,1,1
	.align 8
	.type	_ZL2PI, @object
	.size	_ZL2PI, 8
_ZL2PI:
	.long	1413754136
	.long	1074340347
	.text
	.globl	main
	.type	main, @function
main:
.LFB1452:
	.file 1 "main.cc"
	.loc 1 17 0
	.cfi_startproc
	pushq	%rbp	#
	.cfi_def_cfa_offset 16
	.cfi_offset 6, -16
	movq	%rsp, %rbp	#,
	.cfi_def_cfa_register 6
	leaq	-4160(%rsp), %rsp	#,
	orq	$0, (%rsp)	#,
	leaq	4128(%rsp), %rsp	#,
	.loc 1 18 0
	movabsq	$2432902008176640000, %rax	#, tmp96
	movq	%rax, -16(%rbp)	# tmp96, x
	.loc 1 19 0
	movabsq	$2432902008176640000, %rsi	#,
	leaq	_ZSt4cout(%rip), %rdi	#,
	call	_ZNSolsEx@PLT	#
	movq	%rax, %rdx	#, _4
	movq	_ZSt4endlIcSt11char_traitsIcEERSt13basic_ostreamIT_T0_ES6_@GOTPCREL(%rip), %rax	#, tmp91
	movq	%rax, %rsi	# tmp91,
	movq	%rdx, %rdi	# _4,
	call	_ZNSolsEPFRSoS_E@PLT	#
	.loc 1 20 0
	movsd	.LC0(%rip), %xmm0	#, tmp92
	movsd	%xmm0, -8(%rbp)	# tmp92, y
	.loc 1 21 0
	movq	.LC0(%rip), %rax	#, tmp93
	movq	%rax, -24(%rbp)	# tmp93, %sfp
	movsd	-24(%rbp), %xmm0	# %sfp,
	leaq	_ZSt4cout(%rip), %rdi	#,
	call	_ZNSolsEd@PLT	#
	movq	%rax, %rdx	#, _9
	movq	_ZSt4endlIcSt11char_traitsIcEERSt13basic_ostreamIT_T0_ES6_@GOTPCREL(%rip), %rax	#, tmp94
	movq	%rax, %rsi	# tmp94,
	movq	%rdx, %rdi	# _9,
	call	_ZNSolsEPFRSoS_E@PLT	#
	.loc 1 22 0
	movl	$0, %eax	#, _12
	leave
	.cfi_def_cfa 7, 8
	ret
	.cfi_endproc
.LFE1452:
	.size	main, .-main
	.type	_Z41__static_initialization_and_destruction_0ii, @function
_Z41__static_initialization_and_destruction_0ii:
.LFB1895:
	.loc 1 22 0
	.cfi_startproc
	pushq	%rbp	#
	.cfi_def_cfa_offset 16
	.cfi_offset 6, -16
	movq	%rsp, %rbp	#,
	.cfi_def_cfa_register 6
	leaq	-4144(%rsp), %rsp	#,
	orq	$0, (%rsp)	#,
	leaq	4128(%rsp), %rsp	#,
	movl	%edi, -4(%rbp)	# __initialize_p, __initialize_p
	movl	%esi, -8(%rbp)	# __priority, __priority
	.loc 1 22 0
	cmpl	$1, -4(%rbp)	#, __initialize_p
	jne	.L5	#,
	.loc 1 22 0 is_stmt 0 discriminator 1
	cmpl	$65535, -8(%rbp)	#, __priority
	jne	.L5	#,
	.file 2 "/usr/include/c++/6.2.1/iostream"
	.loc 2 74 0 is_stmt 1
	leaq	_ZStL8__ioinit(%rip), %rdi	#,
	call	_ZNSt8ios_base4InitC1Ev@PLT	#
	leaq	__dso_handle(%rip), %rdx	#,
	leaq	_ZStL8__ioinit(%rip), %rsi	#,
	movq	_ZNSt8ios_base4InitD1Ev@GOTPCREL(%rip), %rax	#, tmp87
	movq	%rax, %rdi	# tmp87,
	call	__cxa_atexit@PLT	#
.L5:
	.loc 1 22 0
	nop
	leave
	.cfi_def_cfa 7, 8
	ret
	.cfi_endproc
.LFE1895:
	.size	_Z41__static_initialization_and_destruction_0ii, .-_Z41__static_initialization_and_destruction_0ii
	.type	_GLOBAL__sub_I_main, @function
_GLOBAL__sub_I_main:
.LFB1896:
	.loc 1 22 0
	.cfi_startproc
	pushq	%rbp	#
	.cfi_def_cfa_offset 16
	.cfi_offset 6, -16
	movq	%rsp, %rbp	#,
	.cfi_def_cfa_register 6
	leaq	-4128(%rsp), %rsp	#,
	orq	$0, (%rsp)	#,
	leaq	4128(%rsp), %rsp	#,
	.loc 1 22 0
	movl	$65535, %esi	#,
	movl	$1, %edi	#,
	call	_Z41__static_initialization_and_destruction_0ii	#
	popq	%rbp	#
	.cfi_def_cfa 7, 8
	ret
	.cfi_endproc
.LFE1896:
	.size	_GLOBAL__sub_I_main, .-_GLOBAL__sub_I_main
	.section	.init_array,"aw"
	.align 8
	.quad	_GLOBAL__sub_I_main
	.section	.rodata
	.align 8
.LC0:
	.long	1413754136
	.long	1074340347
	.text
.Letext0:
	.file 3 "/usr/include/c++/6.2.1/cwchar"
	.file 4 "/usr/include/c++/6.2.1/bits/exception_ptr.h"
	.file 5 "/usr/include/c++/6.2.1/x86_64-pc-linux-gnu/bits/c++config.h"
	.file 6 "/usr/include/c++/6.2.1/type_traits"
	.file 7 "/usr/include/c++/6.2.1/bits/cpp_type_traits.h"
	.file 8 "/usr/include/c++/6.2.1/bits/stl_pair.h"
	.file 9 "/usr/include/c++/6.2.1/debug/debug.h"
	.file 10 "/usr/include/c++/6.2.1/bits/char_traits.h"
	.file 11 "/usr/include/c++/6.2.1/cstdint"
	.file 12 "/usr/include/c++/6.2.1/clocale"
	.file 13 "/usr/include/c++/6.2.1/new"
	.file 14 "/usr/include/c++/6.2.1/cstdlib"
	.file 15 "/usr/include/c++/6.2.1/cstdio"
	.file 16 "/usr/include/c++/6.2.1/bits/basic_string.h"
	.file 17 "/usr/include/c++/6.2.1/system_error"
	.file 18 "/usr/include/c++/6.2.1/bits/ios_base.h"
	.file 19 "/usr/include/c++/6.2.1/cwctype"
	.file 20 "/usr/include/c++/6.2.1/iosfwd"
	.file 21 "/usr/include/c++/6.2.1/bits/predefined_ops.h"
	.file 22 "/usr/include/c++/6.2.1/ext/new_allocator.h"
	.file 23 "/usr/include/c++/6.2.1/ext/numeric_traits.h"
	.file 24 "/usr/include/stdio.h"
	.file 25 "/usr/include/libio.h"
	.file 26 "<built-in>"
	.file 27 "/usr/lib/gcc/x86_64-pc-linux-gnu/6.2.1/include/stddef.h"
	.file 28 "/usr/include/wchar.h"
	.file 29 "/usr/include/time.h"
	.file 30 "/usr/include/stdint.h"
	.file 31 "/usr/include/locale.h"
	.file 32 "/usr/include/bits/types.h"
	.file 33 "/usr/include/c++/6.2.1/x86_64-pc-linux-gnu/bits/atomic_word.h"
	.file 34 "/usr/include/stdlib.h"
	.file 35 "/usr/include/_G_config.h"
	.file 36 "/usr/include/bits/sys_errlist.h"
	.file 37 "/usr/include/errno.h"
	.file 38 "/usr/include/wctype.h"
	.section	.note.GNU-stack,"",@progbits
